target datalayout = "e-m:e-p270:32:32-p271:32:32-p272:64:64-i64:64-i128:128-f80:128-n8:16:32:64-S128"
target triple = "x86_64-pc-linux-gnu"

%struct.SDL_Point = type { i32, i32 }

; Function Attrs: nounwind uwtable
define hidden void @trianglepoint_2_fixedpoint(ptr noundef %0) #0 {
  %2 = alloca ptr, align 8
  %3 = alloca i32, align 4
  store ptr %0, ptr %2, align 8
  call void @llvm.lifetime.start.p0(i64 4, ptr %3) #4
  %4 = load ptr, ptr %2, align 8
  %5 = getelementptr inbounds nuw %struct.SDL_Point, ptr %4, i32 0, i32 0
  %6 = load i32, ptr %5, align 4
  store i32 %6, ptr %3, align 4
  %7 = load i32, ptr %3, align 4
  %8 = icmp sge i32 %7, 0
  br i1 %8, label %9, label %14

9:                                                ; preds = %1
  %10 = load i32, ptr %3, align 4
  %11 = shl i32 %10, 1
  %12 = load ptr, ptr %2, align 8
  %13 = getelementptr inbounds nuw %struct.SDL_Point, ptr %12, i32 0, i32 0
  store i32 %11, ptr %13, align 4
  br label %25

14:                                               ; preds = %1
  %15 = load i32, ptr %3, align 4
  %16 = mul nsw i32 %15, -1
  store i32 %16, ptr %3, align 4
  %17 = load i32, ptr %3, align 4
  %18 = shl i32 %17, 1
  %19 = load ptr, ptr %2, align 8
  %20 = getelementptr inbounds nuw %struct.SDL_Point, ptr %19, i32 0, i32 0
  store i32 %18, ptr %20, align 4
  %21 = load ptr, ptr %2, align 8
  %22 = getelementptr inbounds nuw %struct.SDL_Point, ptr %21, i32 0, i32 0
  %23 = load i32, ptr %22, align 4
  %24 = mul nsw i32 %23, -1
  store i32 %24, ptr %22, align 4
  br label %25

25:                                               ; preds = %14, %9
  %26 = load ptr, ptr %2, align 8
  %27 = getelementptr inbounds nuw %struct.SDL_Point, ptr %26, i32 0, i32 1
  %28 = load i32, ptr %27, align 4
  store i32 %28, ptr %3, align 4
  %29 = load i32, ptr %3, align 4
  %30 = icmp sge i32 %29, 0
  br i1 %30, label %31, label %36

31:                                               ; preds = %25
  %32 = load i32, ptr %3, align 4
  %33 = shl i32 %32, 1
  %34 = load ptr, ptr %2, align 8
  %35 = getelementptr inbounds nuw %struct.SDL_Point, ptr %34, i32 0, i32 1
  store i32 %33, ptr %35, align 4
  br label %47

36:                                               ; preds = %25
  %37 = load i32, ptr %3, align 4
  %38 = mul nsw i32 %37, -1
  store i32 %38, ptr %3, align 4
  %39 = load i32, ptr %3, align 4
  %40 = shl i32 %39, 1
  %41 = load ptr, ptr %2, align 8
  %42 = getelementptr inbounds nuw %struct.SDL_Point, ptr %41, i32 0, i32 1
  store i32 %40, ptr %42, align 4
  %43 = load ptr, ptr %2, align 8
  %44 = getelementptr inbounds nuw %struct.SDL_Point, ptr %43, i32 0, i32 1
  %45 = load i32, ptr %44, align 4
  %46 = mul nsw i32 %45, -1
  store i32 %46, ptr %44, align 4
  br label %47

47:                                               ; preds = %36, %31
  call void @llvm.lifetime.end.p0(i64 4, ptr %3) #4
  ret void
}