; Function Attrs: mustprogress nofree norecurse nosync nounwind willreturn memory(argmem: readwrite) uwtable
define hidden void @trianglepoint_2_fixedpoint(ptr noundef captures(none) %0) local_unnamed_addr #0 {
  %2 = load i32, ptr %0, align 4
  %storemerge = shl i32 %2, 1
  store i32 %storemerge, ptr %0, align 4
  %3 = getelementptr inbounds nuw i8, ptr %0, i64 4
  %4 = load i32, ptr %3, align 4
  %storemerge17 = shl i32 %4, 1
  store i32 %storemerge17, ptr %3, align 4
  ret void
}